target datalayout = "e-m:e-p270:32:32-p271:32:32-p272:64:64-i64:64-i128:128-f80:128-n8:16:32:64-S128"
target triple = "x86_64-unknown-linux-gnu"

%"class.OpenImageIO_v2_6_0::ustring" = type { ptr }
%"class.OpenImageIO_v2_6_0::pvt::ImageCachePerThreadInfo" = type <{ %"class.tsl::robin_map.31", %"class.OpenImageIO_v2_6_0::intrusive_ptr", %"class.OpenImageIO_v2_6_0::intrusive_ptr", %"struct.std::atomic.9", [4 x i8], %"struct.OpenImageIO_v2_6_0::pvt::ImageCacheStatistics", i8, [7 x i8] }>
%"class.tsl::robin_map.31" = type { %"class.tsl::detail_robin_hash::robin_hash.32" }
%"class.tsl::detail_robin_hash::robin_hash.32" = type <{ %"class.tsl::rh::power_of_two_growth_policy", %"class.std::vector.33", ptr, i64, i64, i64, float, i8, [3 x i8], float, i8, [3 x i8] }>
%"class.tsl::rh::power_of_two_growth_policy" = type { i64 }
%"class.std::vector.33" = type { %"struct.std::_Vector_base.34" }
%"struct.std::_Vector_base.34" = type { %"struct.std::_Vector_base<tsl::detail_robin_hash::bucket_entry<std::pair<OpenImageIO_v2_6_0::ustring, OpenImageIO_v2_6_0::pvt::ImageCacheFile *>, true>, std::allocator<tsl::detail_robin_hash::bucket_entry<std::pair<OpenImageIO_v2_6_0::ustring, OpenImageIO_v2_6_0::pvt::ImageCacheFile *>, true>>>::_Vector_impl" }
%"struct.std::_Vector_base<tsl::detail_robin_hash::bucket_entry<std::pair<OpenImageIO_v2_6_0::ustring, OpenImageIO_v2_6_0::pvt::ImageCacheFile *>, true>, std::allocator<tsl::detail_robin_hash::bucket_entry<std::pair<OpenImageIO_v2_6_0::ustring, OpenImageIO_v2_6_0::pvt::ImageCacheFile *>, true>>>::_Vector_impl" = type { %"struct.std::_Vector_base<tsl::detail_robin_hash::bucket_entry<std::pair<OpenImageIO_v2_6_0::ustring, OpenImageIO_v2_6_0::pvt::ImageCacheFile *>, true>, std::allocator<tsl::detail_robin_hash::bucket_entry<std::pair<OpenImageIO_v2_6_0::ustring, OpenImageIO_v2_6_0::pvt::ImageCacheFile *>, true>>>::_Vector_impl_data" }
%"struct.std::_Vector_base<tsl::detail_robin_hash::bucket_entry<std::pair<OpenImageIO_v2_6_0::ustring, OpenImageIO_v2_6_0::pvt::ImageCacheFile *>, true>, std::allocator<tsl::detail_robin_hash::bucket_entry<std::pair<OpenImageIO_v2_6_0::ustring, OpenImageIO_v2_6_0::pvt::ImageCacheFile *>, true>>>::_Vector_impl_data" = type { ptr, ptr, ptr }
%"class.OpenImageIO_v2_6_0::intrusive_ptr" = type { ptr }
%"struct.std::atomic.9" = type { %"struct.std::__atomic_base.10" }
%"struct.std::__atomic_base.10" = type { i32 }
%"struct.OpenImageIO_v2_6_0::pvt::ImageCacheStatistics" = type { i64, i64, i32, i64, i64, i64, i32, double, double, double, double, double, double, i64, i64, i64, i64, i64, i64, i64, i64, i64, i64, i64, float, i64, i64, i64, i32, i32 }
%"class.OpenImageIO_v2_6_0::TextureOpt" = type { i32, i32, %"class.OpenImageIO_v2_6_0::ustring", i32, i32, i32, i32, i32, i8, float, float, float, float, float, ptr, float, %union.anon.30, i32, i32, float, float, i32, i32 }
%union.anon.30 = type { float }

; Function Attrs: mustprogress uwtable
define hidden noundef zeroext i1 @_ZN18OpenImageIO_v2_6_03pvt17TextureSystemImpl22texture3d_lookup_nomipERNS0_14ImageCacheFileEPNS0_23ImageCachePerThreadInfoERNS_10TextureOptEiiRKN9Imath_2_54Vec3IfEESC_SC_SC_PfSD_SD_SD_(ptr noundef nonnull align 8 dereferenceable(184) %this, ptr noundef nonnull align 8 dereferenceable(360) %texturefile, ptr noundef %thread_info, ptr noundef nonnull align 8 dereferenceable(104) %options, i32 noundef %nchannels_result, i32 noundef %actualchannels, ptr noundef nonnull align 4 dereferenceable(12) %P, ptr noundef nonnull align 4 dereferenceable(12) %0, ptr noundef nonnull align 4 dereferenceable(12) %1, ptr noundef nonnull align 4 dereferenceable(12) %2, ptr noundef %result, ptr noundef %dresultds, ptr noundef %dresultdt, ptr noundef %dresultdr) #8 align 2 {
entry:
  %this.addr = alloca ptr, align 8
  %texturefile.addr = alloca ptr, align 8
  %thread_info.addr = alloca ptr, align 8
  %options.addr = alloca ptr, align 8
  %nchannels_result.addr = alloca i32, align 4
  %actualchannels.addr = alloca i32, align 4
  %P.addr = alloca ptr, align 8
  %.addr = alloca ptr, align 8
  %.addr1 = alloca ptr, align 8
  %.addr2 = alloca ptr, align 8
  %result.addr = alloca ptr, align 8
  %dresultds.addr = alloca ptr, align 8
  %dresultdt.addr = alloca ptr, align 8
  %dresultdr.addr = alloca ptr, align 8
  %c = alloca i32, align 4
  %c4 = alloca i32, align 4
  %c13 = alloca i32, align 4
  %c22 = alloca i32, align 4
  %accumer = alloca { i64, i64 }, align 8
  %ok = alloca i8, align 1
  %stats = alloca ptr, align 8
  store ptr %this, ptr %this.addr, align 8
  store ptr %texturefile, ptr %texturefile.addr, align 8
  store ptr %thread_info, ptr %thread_info.addr, align 8
  store ptr %options, ptr %options.addr, align 8
  store i32 %nchannels_result, ptr %nchannels_result.addr, align 4
  store i32 %actualchannels, ptr %actualchannels.addr, align 4
  store ptr %P, ptr %P.addr, align 8
  store ptr %0, ptr %.addr, align 8
  store ptr %1, ptr %.addr1, align 8
  store ptr %2, ptr %.addr2, align 8
  store ptr %result, ptr %result.addr, align 8
  store ptr %dresultds, ptr %dresultds.addr, align 8
  store ptr %dresultdt, ptr %dresultdt.addr, align 8
  store ptr %dresultdr, ptr %dresultdr.addr, align 8
  %this3 = load ptr, ptr %this.addr, align 8
  store i32 0, ptr %c, align 4
  br label %for.cond

for.cond:                                         ; preds = %for.inc, %entry
  %3 = load i32, ptr %c, align 4
  %4 = load i32, ptr %nchannels_result.addr, align 4
  %cmp = icmp slt i32 %3, %4
  br i1 %cmp, label %for.body, label %for.end

for.body:                                         ; preds = %for.cond
  %5 = load ptr, ptr %result.addr, align 8
  %6 = load i32, ptr %c, align 4
  %idxprom = sext i32 %6 to i64
  %arrayidx = getelementptr inbounds float, ptr %5, i64 %idxprom
  store float 0.000000e+00, ptr %arrayidx, align 4
  br label %for.inc

for.inc:                                          ; preds = %for.body
  %7 = load i32, ptr %c, align 4
  %inc = add nsw i32 %7, 1
  store i32 %inc, ptr %c, align 4
  br label %for.cond, !llvm.loop !5

for.end:                                          ; preds = %for.cond
  %8 = load ptr, ptr %dresultds.addr, align 8
  %tobool = icmp ne ptr %8, null
  br i1 %tobool, label %if.then, label %if.end

if.then:                                          ; preds = %for.end
  store i32 0, ptr %c4, align 4
  br label %for.cond5

for.cond5:                                        ; preds = %for.inc10, %if.then
  %9 = load i32, ptr %c4, align 4
  %10 = load i32, ptr %nchannels_result.addr, align 4
  %cmp6 = icmp slt i32 %9, %10
  br i1 %cmp6, label %for.body7, label %for.end12

for.body7:                                        ; preds = %for.cond5
  %11 = load ptr, ptr %dresultds.addr, align 8
  %12 = load i32, ptr %c4, align 4
  %idxprom8 = sext i32 %12 to i64
  %arrayidx9 = getelementptr inbounds float, ptr %11, i64 %idxprom8
  store float 0.000000e+00, ptr %arrayidx9, align 4
  br label %for.inc10

for.inc10:                                        ; preds = %for.body7
  %13 = load i32, ptr %c4, align 4
  %inc11 = add nsw i32 %13, 1
  store i32 %inc11, ptr %c4, align 4
  br label %for.cond5, !llvm.loop !7

for.end12:                                        ; preds = %for.cond5
  store i32 0, ptr %c13, align 4
  br label %for.cond14

for.cond14:                                       ; preds = %for.inc19, %for.end12
  %14 = load i32, ptr %c13, align 4
  %15 = load i32, ptr %nchannels_result.addr, align 4
  %cmp15 = icmp slt i32 %14, %15
  br i1 %cmp15, label %for.body16, label %for.end21

for.body16:                                       ; preds = %for.cond14
  %16 = load ptr, ptr %dresultdt.addr, align 8
  %17 = load i32, ptr %c13, align 4
  %idxprom17 = sext i32 %17 to i64
  %arrayidx18 = getelementptr inbounds float, ptr %16, i64 %idxprom17
  store float 0.000000e+00, ptr %arrayidx18, align 4
  br label %for.inc19

for.inc19:                                        ; preds = %for.body16
  %18 = load i32, ptr %c13, align 4
  %inc20 = add nsw i32 %18, 1
  store i32 %inc20, ptr %c13, align 4
  br label %for.cond14, !llvm.loop !8

for.end21:                                        ; preds = %for.cond14
  store i32 0, ptr %c22, align 4
  br label %for.cond23

for.cond23:                                       ; preds = %for.inc28, %for.end21
  %19 = load i32, ptr %c22, align 4
  %20 = load i32, ptr %nchannels_result.addr, align 4
  %cmp24 = icmp slt i32 %19, %20
  br i1 %cmp24, label %for.body25, label %for.end30

for.body25:                                       ; preds = %for.cond23
  %21 = load ptr, ptr %dresultdr.addr, align 8
  %22 = load i32, ptr %c22, align 4
  %idxprom26 = sext i32 %22 to i64
  %arrayidx27 = getelementptr inbounds float, ptr %21, i64 %idxprom26
  store float 0.000000e+00, ptr %arrayidx27, align 4
  br label %for.inc28

for.inc28:                                        ; preds = %for.body25
  %23 = load i32, ptr %c22, align 4
  %inc29 = add nsw i32 %23, 1
  store i32 %inc29, ptr %c22, align 4
  br label %for.cond23, !llvm.loop !9

for.end30:                                        ; preds = %for.cond23
  br label %if.end

if.end:                                           ; preds = %for.end30, %for.end
  %24 = load ptr, ptr %dresultds.addr, align 8
  %tobool31 = icmp ne ptr %24, null
  br i1 %tobool31, label %land.lhs.true, label %if.then35

land.lhs.true:                                    ; preds = %if.end
  %25 = load ptr, ptr %dresultdt.addr, align 8
  %tobool32 = icmp ne ptr %25, null
  br i1 %tobool32, label %land.lhs.true33, label %if.then35

land.lhs.true33:                                  ; preds = %land.lhs.true
  %26 = load ptr, ptr %dresultdr.addr, align 8
  %tobool34 = icmp ne ptr %26, null
  br i1 %tobool34, label %if.end36, label %if.then35

if.then35:                                        ; preds = %land.lhs.true33, %land.lhs.true, %if.end
  store ptr null, ptr %dresultdr.addr, align 8
  store ptr null, ptr %dresultdt.addr, align 8
  store ptr null, ptr %dresultds.addr, align 8
  br label %if.end36

if.end36:                                         ; preds = %if.then35, %land.lhs.true33
  %27 = load ptr, ptr %options.addr, align 8
  %interpmode = getelementptr inbounds %"class.OpenImageIO_v2_6_0::TextureOpt", ptr %27, i32 0, i32 6
  %28 = load i32, ptr %interpmode, align 4
  %idxprom37 = sext i32 %28 to i64
  %arrayidx38 = getelementptr inbounds [4 x { i64, i64 }], ptr @_ZZN18OpenImageIO_v2_6_03pvt17TextureSystemImpl22texture3d_lookup_nomipERNS0_14ImageCacheFileEPNS0_23ImageCachePerThreadInfoERNS_10TextureOptEiiRKN9Imath_2_54Vec3IfEESC_SC_SC_PfSD_SD_SD_E15accum_functions, i64 0, i64 %idxprom37
  %29 = load { i64, i64 }, ptr %arrayidx38, align 16
  store { i64, i64 } %29, ptr %accumer, align 8
  %30 = load { i64, i64 }, ptr %accumer, align 8
  %memptr.adj = extractvalue { i64, i64 } %30, 1
  %31 = getelementptr inbounds i8, ptr %this3, i64 %memptr.adj
  %memptr.ptr = extractvalue { i64, i64 } %30, 0
  %32 = and i64 %memptr.ptr, 1
  %memptr.isvirtual = icmp ne i64 %32, 0
  br i1 %memptr.isvirtual, label %memptr.virtual, label %memptr.nonvirtual

memptr.virtual:                                   ; preds = %if.end36
  %vtable = load ptr, ptr %31, align 8
  %33 = sub i64 %memptr.ptr, 1
  %34 = getelementptr i8, ptr %vtable, i64 %33, !nosanitize !4
  %memptr.virtualfn = load ptr, ptr %34, align 8, !nosanitize !4
  br label %memptr.end

memptr.nonvirtual:                                ; preds = %if.end36
  %memptr.nonvirtualfn = inttoptr i64 %memptr.ptr to ptr
  br label %memptr.end

memptr.end:                                       ; preds = %memptr.nonvirtual, %memptr.virtual
  %35 = phi ptr [ %memptr.virtualfn, %memptr.virtual ], [ %memptr.nonvirtualfn, %memptr.nonvirtual ]
  %36 = load ptr, ptr %P.addr, align 8
  %37 = load ptr, ptr %texturefile.addr, align 8
  %38 = load ptr, ptr %thread_info.addr, align 8
  %39 = load ptr, ptr %options.addr, align 8
  %40 = load i32, ptr %nchannels_result.addr, align 4
  %41 = load i32, ptr %actualchannels.addr, align 4
  %42 = load ptr, ptr %result.addr, align 8
  %43 = load ptr, ptr %dresultds.addr, align 8
  %44 = load ptr, ptr %dresultdt.addr, align 8
  %45 = load ptr, ptr %dresultdr.addr, align 8
  %call = call noundef zeroext i1 %35(ptr noundef nonnull align 8 dereferenceable(184) %31, ptr noundef nonnull align 4 dereferenceable(12) %36, i32 noundef 0, ptr noundef nonnull align 8 dereferenceable(360) %37, ptr noundef %38, ptr noundef nonnull align 8 dereferenceable(104) %39, i32 noundef %40, i32 noundef %41, float noundef 1.000000e+00, ptr noundef %42, ptr noundef %43, ptr noundef %44, ptr noundef %45)
  %frombool = zext i1 %call to i8
  store i8 %frombool, ptr %ok, align 1
  %46 = load ptr, ptr %thread_info.addr, align 8
  %m_stats = getelementptr inbounds %"class.OpenImageIO_v2_6_0::pvt::ImageCachePerThreadInfo", ptr %46, i32 0, i32 5
  store ptr %m_stats, ptr %stats, align 8
  %47 = load ptr, ptr %stats, align 8
  %aniso_queries = getelementptr inbounds %"struct.OpenImageIO_v2_6_0::pvt::ImageCacheStatistics", ptr %47, i32 0, i32 22
  %48 = load i64, ptr %aniso_queries, align 8
  %inc39 = add nsw i64 %48, 1
  store i64 %inc39, ptr %aniso_queries, align 8
  %49 = load ptr, ptr %stats, align 8
  %aniso_probes = getelementptr inbounds %"struct.OpenImageIO_v2_6_0::pvt::ImageCacheStatistics", ptr %49, i32 0, i32 23
  %50 = load i64, ptr %aniso_probes, align 8
  %inc40 = add nsw i64 %50, 1
  store i64 %inc40, ptr %aniso_probes, align 8
  %51 = load ptr, ptr %options.addr, align 8
  %interpmode41 = getelementptr inbounds %"class.OpenImageIO_v2_6_0::TextureOpt", ptr %51, i32 0, i32 6
  %52 = load i32, ptr %interpmode41, align 4
  switch i32 %52, label %sw.epilog [
    i32 0, label %sw.bb
    i32 1, label %sw.bb43
    i32 2, label %sw.bb45
    i32 3, label %sw.bb47
  ]

sw.bb:                                            ; preds = %memptr.end
  %53 = load ptr, ptr %stats, align 8
  %closest_interps = getelementptr inbounds %"struct.OpenImageIO_v2_6_0::pvt::ImageCacheStatistics", ptr %53, i32 0, i32 25
  %54 = load i64, ptr %closest_interps, align 8
  %inc42 = add nsw i64 %54, 1
  store i64 %inc42, ptr %closest_interps, align 8
  br label %sw.epilog

sw.bb43:                                          ; preds = %memptr.end
  %55 = load ptr, ptr %stats, align 8
  %bilinear_interps = getelementptr inbounds %"struct.OpenImageIO_v2_6_0::pvt::ImageCacheStatistics", ptr %55, i32 0, i32 26
  %56 = load i64, ptr %bilinear_interps, align 8
  %inc44 = add nsw i64 %56, 1
  store i64 %inc44, ptr %bilinear_interps, align 8
  br label %sw.epilog

sw.bb45:                                          ; preds = %memptr.end
  %57 = load ptr, ptr %stats, align 8
  %cubic_interps = getelementptr inbounds %"struct.OpenImageIO_v2_6_0::pvt::ImageCacheStatistics", ptr %57, i32 0, i32 27
  %58 = load i64, ptr %cubic_interps, align 8
  %inc46 = add nsw i64 %58, 1
  store i64 %inc46, ptr %cubic_interps, align 8
  br label %sw.epilog

sw.bb47:                                          ; preds = %memptr.end
  %59 = load ptr, ptr %stats, align 8
  %bilinear_interps48 = getelementptr inbounds %"struct.OpenImageIO_v2_6_0::pvt::ImageCacheStatistics", ptr %59, i32 0, i32 26
  %60 = load i64, ptr %bilinear_interps48, align 8
  %inc49 = add nsw i64 %60, 1
  store i64 %inc49, ptr %bilinear_interps48, align 8
  br label %sw.epilog

sw.epilog:                                        ; preds = %sw.bb47, %sw.bb45, %sw.bb43, %sw.bb, %memptr.end
  %61 = load i8, ptr %ok, align 1
  %tobool50 = trunc i8 %61 to i1
  ret i1 %tobool50
}