; Function Attrs: mustprogress uwtable
define hidden noundef zeroext i1 @_ZN18OpenImageIO_v2_6_03pvt17TextureSystemImpl22texture3d_lookup_nomipERNS0_14ImageCacheFileEPNS0_23ImageCachePerThreadInfoERNS_10TextureOptEiiRKN9Imath_2_54Vec3IfEESC_SC_SC_PfSD_SD_SD_(ptr noundef nonnull align 8 dereferenceable(184) %this, ptr noundef nonnull align 8 dereferenceable(360) %texturefile, ptr noundef %thread_info, ptr noundef nonnull align 8 dereferenceable(104) %options, i32 noundef %nchannels_result, i32 noundef %actualchannels, ptr noundef nonnull align 4 dereferenceable(12) %P, ptr nocapture noundef nonnull readnone align 4 dereferenceable(12) %0, ptr nocapture noundef nonnull readnone align 4 dereferenceable(12) %1, ptr nocapture noundef nonnull readnone align 4 dereferenceable(12) %2, ptr noundef %result, ptr noundef %dresultds, ptr noundef %dresultdt, ptr noundef %dresultdr) local_unnamed_addr #7 align 2 {
entry:
  %cmp34 = icmp sgt i32 %nchannels_result, 0
  br i1 %cmp34, label %for.end, label %for.end.thread

for.end:                                          ; preds = %entry
  %3 = zext nneg i32 %nchannels_result to i64
  %4 = shl nuw nsw i64 %3, 2
  tail call void @llvm.memset.p0.i64(ptr align 4 %result, i8 0, i64 %4, i1 false)
  %tobool.not = icmp eq ptr %dresultds, null
  br i1 %tobool.not, label %if.end, label %for.body25.preheader

for.end.thread:                                   ; preds = %entry
  %tobool46 = icmp ne ptr %dresultds, null
  br label %if.end

for.body25.preheader:                             ; preds = %for.end
  %5 = zext nneg i32 %nchannels_result to i64
  %6 = shl nuw nsw i64 %5, 2
  tail call void @llvm.memset.p0.i64(ptr nonnull align 4 %dresultds, i8 0, i64 %6, i1 false)
  %7 = zext nneg i32 %nchannels_result to i64
  %8 = shl nuw nsw i64 %7, 2
  tail call void @llvm.memset.p0.i64(ptr align 4 %dresultdt, i8 0, i64 %8, i1 false)
  %9 = zext nneg i32 %nchannels_result to i64
  %10 = shl nuw nsw i64 %9, 2
  tail call void @llvm.memset.p0.i64(ptr align 4 %dresultdr, i8 0, i64 %10, i1 false)
  br label %if.end

if.end:                                           ; preds = %for.end.thread, %for.body25.preheader, %for.end
  %tobool47 = phi i1 [ true, %for.body25.preheader ], [ false, %for.end ], [ %tobool46, %for.end.thread ]
  %tobool32 = icmp ne ptr %dresultdt, null
  %tobool34 = icmp ne ptr %dresultdr, null
  %11 = and i1 %tobool32, %tobool34
  %or.cond1 = and i1 %tobool47, %11
  %dresultdr.addr.0 = select i1 %or.cond1, ptr %dresultdr, ptr null
  %dresultdt.addr.0 = select i1 %or.cond1, ptr %dresultdt, ptr null
  %dresultds.addr.0 = select i1 %11, ptr %dresultds, ptr null
  %interpmode = getelementptr inbounds i8, ptr %options, i64 28
  %12 = load i32, ptr %interpmode, align 4
  %idxprom37 = sext i32 %12 to i64
  %arrayidx38 = getelementptr inbounds [4 x { i64, i64 }], ptr @_ZZN18OpenImageIO_v2_6_03pvt17TextureSystemImpl22texture3d_lookup_nomipERNS0_14ImageCacheFileEPNS0_23ImageCachePerThreadInfoERNS_10TextureOptEiiRKN9Imath_2_54Vec3IfEESC_SC_SC_PfSD_SD_SD_E15accum_functions, i64 0, i64 %idxprom37
  %.unpack = load i64, ptr %arrayidx38, align 16
  %13 = and i64 %.unpack, 1
  %memptr.isvirtual.not = icmp eq i64 %13, 0
  br i1 %memptr.isvirtual.not, label %memptr.nonvirtual, label %memptr.virtual

memptr.virtual:                                   ; preds = %if.end
  %vtable = load ptr, ptr %this, align 8
  %14 = getelementptr i8, ptr %vtable, i64 %.unpack
  %15 = getelementptr i8, ptr %14, i64 -1
  %memptr.virtualfn = load ptr, ptr %15, align 8, !nosanitize !11
  br label %memptr.end

memptr.nonvirtual:                                ; preds = %if.end
  %memptr.nonvirtualfn = inttoptr i64 %.unpack to ptr
  br label %memptr.end

memptr.end:                                       ; preds = %memptr.nonvirtual, %memptr.virtual
  %16 = phi ptr [ %memptr.virtualfn, %memptr.virtual ], [ %memptr.nonvirtualfn, %memptr.nonvirtual ]
  %call = tail call noundef zeroext i1 %16(ptr noundef nonnull align 8 dereferenceable(184) %this, ptr noundef nonnull align 4 dereferenceable(12) %P, i32 noundef 0, ptr noundef nonnull align 8 dereferenceable(360) %texturefile, ptr noundef %thread_info, ptr noundef nonnull align 8 dereferenceable(104) %options, i32 noundef %nchannels_result, i32 noundef %actualchannels, float noundef 1.000000e+00, ptr noundef %result, ptr noundef %dresultds.addr.0, ptr noundef %dresultdt.addr.0, ptr noundef %dresultdr.addr.0)
  %aniso_queries = getelementptr inbounds i8, ptr %thread_info, i64 280
  %17 = load <2 x i64>, ptr %aniso_queries, align 8
  %18 = add nsw <2 x i64> %17, <i64 1, i64 1>
  store <2 x i64> %18, ptr %aniso_queries, align 8
  %19 = load i32, ptr %interpmode, align 4
  %20 = icmp ult i32 %19, 4
  br i1 %20, label %switch.lookup, label %sw.epilog

switch.lookup:                                    ; preds = %memptr.end
  %21 = zext nneg i32 %19 to i64
  %switch.gep = getelementptr inbounds [4 x i64], ptr @switch.table._ZN18OpenImageIO_v2_6_03pvt17TextureSystemImpl22texture3d_lookup_nomipERNS0_14ImageCacheFileEPNS0_23ImageCachePerThreadInfoERNS_10TextureOptEiiRKN9Imath_2_54Vec3IfEESC_SC_SC_PfSD_SD_SD_, i64 0, i64 %21
  %switch.load = load i64, ptr %switch.gep, align 8
  %closest_interps = getelementptr inbounds i8, ptr %thread_info, i64 %switch.load
  %22 = load i64, ptr %closest_interps, align 8
  %inc49 = add nsw i64 %22, 1
  store i64 %inc49, ptr %closest_interps, align 8
  br label %sw.epilog

sw.epilog:                                        ; preds = %memptr.end, %switch.lookup
  ret i1 %call
}